; ModuleID = 'source-C-CXX/27/227.c'
source_filename = "source-C-CXX/27/227.c"
target datalayout = "e-m:e-p270:32:32-p271:32:32-p272:64:64-i64:64-f80:128-n8:16:32:64-S128"
target triple = "x86_64-pc-linux-gnu"

@.str = private unnamed_addr constant [3 x i8] c"%d\00", align 1
@.str.1 = private unnamed_addr constant [4 x i8] c",%d\00", align 1

; Function Attrs: nounwind sspstrong uwtable
define dso_local void @main() local_unnamed_addr #0 {
  %1 = alloca [1000 x i8], align 16
  %2 = alloca [300 x i32], align 16
  %3 = getelementptr inbounds [1000 x i8], [1000 x i8]* %1, i64 0, i64 0
  call void @llvm.lifetime.start.p0i8(i64 1000, i8* nonnull %3) #5
  %4 = bitcast [300 x i32]* %2 to i8*
  call void @llvm.lifetime.start.p0i8(i64 1200, i8* nonnull %4) #5
  call void @llvm.memset.p0i8.i64(i8* noundef nonnull align 16 dereferenceable(1200) %4, i8 0, i64 1200, i1 false)
  %5 = call i32 (i8*, ...) bitcast (i32 (...)* @gets to i32 (i8*, ...)*)(i8* nonnull %3) #5
  %6 = load i8, i8* %3, align 16, !tbaa !5
  %7 = icmp eq i8 %6, 0
  br i1 %7, label %33, label %8

8:                                                ; preds = %0, %24
  %9 = phi i64 [ %27, %24 ], [ 0, %0 ]
  %10 = phi i8 [ %29, %24 ], [ %6, %0 ]
  %11 = phi i32 [ %26, %24 ], [ undef, %0 ]
  %12 = phi i32 [ %25, %24 ], [ 0, %0 ]
  %13 = icmp eq i8 %10, 32
  %14 = icmp eq i32 %11, 0
  %15 = select i1 %13, i1 %14, i1 false
  br i1 %15, label %16, label %18

16:                                               ; preds = %8
  %17 = add nsw i32 %12, 1
  br label %24

18:                                               ; preds = %8
  br i1 %13, label %24, label %19

19:                                               ; preds = %18
  %20 = sext i32 %12 to i64
  %21 = getelementptr inbounds [300 x i32], [300 x i32]* %2, i64 0, i64 %20
  %22 = load i32, i32* %21, align 4, !tbaa !8
  %23 = add nsw i32 %22, 1
  store i32 %23, i32* %21, align 4, !tbaa !8
  br label %24

24:                                               ; preds = %16, %19, %18
  %25 = phi i32 [ %17, %16 ], [ %12, %19 ], [ %12, %18 ]
  %26 = phi i32 [ 1, %16 ], [ 0, %19 ], [ %11, %18 ]
  %27 = add nuw i64 %9, 1
  %28 = getelementptr inbounds [1000 x i8], [1000 x i8]* %1, i64 0, i64 %27
  %29 = load i8, i8* %28, align 1, !tbaa !5
  %30 = icmp eq i8 %29, 0
  br i1 %30, label %31, label %8, !llvm.loop !10

31:                                               ; preds = %24
  %32 = icmp eq i32 %25, 0
  br i1 %32, label %33, label %37

33:                                               ; preds = %0, %31
  %34 = getelementptr inbounds [300 x i32], [300 x i32]* %2, i64 0, i64 0
  %35 = load i32, i32* %34, align 16, !tbaa !8
  %36 = call i32 (i8*, ...) @printf(i8* nonnull dereferenceable(1) getelementptr inbounds ([3 x i8], [3 x i8]* @.str, i64 0, i64 0), i32 %35)
  br label %52

37:                                               ; preds = %31
  %38 = icmp sgt i32 %25, 0
  br i1 %38, label %39, label %52

39:                                               ; preds = %37
  %40 = getelementptr inbounds [300 x i32], [300 x i32]* %2, i64 0, i64 0
  %41 = load i32, i32* %40, align 16, !tbaa !8
  %42 = call i32 (i8*, ...) @printf(i8* nonnull dereferenceable(1) getelementptr inbounds ([3 x i8], [3 x i8]* @.str, i64 0, i64 0), i32 %41)
  %43 = add nuw i32 %25, 1
  %44 = zext i32 %43 to i64
  br label %45

45:                                               ; preds = %39, %45
  %46 = phi i64 [ 1, %39 ], [ %50, %45 ]
  %47 = getelementptr inbounds [300 x i32], [300 x i32]* %2, i64 0, i64 %46
  %48 = load i32, i32* %47, align 4, !tbaa !8
  %49 = call i32 (i8*, ...) @printf(i8* nonnull dereferenceable(1) getelementptr inbounds ([4 x i8], [4 x i8]* @.str.1, i64 0, i64 0), i32 %48)
  %50 = add nuw nsw i64 %46, 1
  %51 = icmp eq i64 %50, %44
  br i1 %51, label %52, label %45, !llvm.loop !12

52:                                               ; preds = %45, %37, %33
  call void @llvm.lifetime.end.p0i8(i64 1200, i8* nonnull %4) #5
  call void @llvm.lifetime.end.p0i8(i64 1000, i8* nonnull %3) #5
  ret void
}

; Function Attrs: argmemonly mustprogress nofree nosync nounwind willreturn
declare void @llvm.lifetime.start.p0i8(i64 immarg, i8* nocapture) #1

; Function Attrs: argmemonly mustprogress nofree nounwind willreturn writeonly
declare void @llvm.memset.p0i8.i64(i8* nocapture writeonly, i8, i64, i1 immarg) #2

declare i32 @gets(...) local_unnamed_addr #3

; Function Attrs: nofree nounwind
declare noundef i32 @printf(i8* nocapture noundef readonly, ...) local_unnamed_addr #4

; Function Attrs: argmemonly mustprogress nofree nosync nounwind willreturn
declare void @llvm.lifetime.end.p0i8(i64 immarg, i8* nocapture) #1


!llvm.module.flags = !{!0, !1, !2, !3}
!llvm.ident = !{!4}

!0 = !{i32 1, !"wchar_size", i32 4}
!1 = !{i32 7, !"PIC Level", i32 2}
!2 = !{i32 7, !"PIE Level", i32 2}
!3 = !{i32 7, !"uwtable", i32 1}
!4 = !{!"clang version 13.0.0"}
!5 = !{!6, !6, i64 0}
!6 = !{!"omnipotent char", !7, i64 0}
!7 = !{!"Simple C/C++ TBAA"}
!8 = !{!9, !9, i64 0}
!9 = !{!"int", !6, i64 0}
!10 = distinct !{!10, !11}
!11 = !{!"llvm.loop.mustprogress"}
!12 = distinct !{!12, !11}
